; Function Attrs: nounwind sspstrong uwtable
define internal i64 @sockopt_s_ipv4_multicast_ttl(i64 %0, i64 noundef %1) #0 {
  %3 = alloca i64, align 8
  %4 = alloca i32, align 4
  call void @llvm.lifetime.start.p0(i64 4, ptr nonnull %4) #6
  %5 = tail call i64 @rb_to_int(i64 noundef %1) #6
  %6 = and i64 %5, 1
  %.not.i.i = icmp eq i64 %6, 0
  br i1 %.not.i.i, label %9, label %7

7:                                                ; preds = %2
  %8 = tail call i64 @rb_fix2int(i64 noundef %5) #6
  br label %sockopt_pack_int.exit

9:                                                ; preds = %2
  %10 = tail call i64 @rb_num2int(i64 noundef %5) #6
  br label %sockopt_pack_int.exit

sockopt_pack_int.exit:                            ; preds = %7, %9
  %.0.i.i = phi i64 [ %8, %7 ], [ %10, %9 ]
  %11 = trunc i64 %.0.i.i to i32
  store i32 %11, ptr %4, align 4, !tbaa !77
  %12 = call i64 @rb_str_new(ptr noundef nonnull %4, i64 noundef 4) #6
  call void @llvm.lifetime.end.p0(i64 4, ptr nonnull %4) #6
  call void @llvm.lifetime.start.p0(i64 8, ptr nonnull %3)
  store i64 %12, ptr %3, align 8, !tbaa !6
  %13 = load i64, ptr @rb_cSockOpt, align 8, !tbaa !6
  %14 = call i64 @rb_obj_alloc(i64 noundef %13) #6
  %15 = call i64 @rb_string_value(ptr noundef nonnull %3) #6
  %16 = load i64, ptr %3, align 8, !tbaa !6
  %17 = call i64 @sockopt_initialize(i64 noundef %14, i64 noundef 5, i64 noundef 1, i64 noundef 67, i64 noundef %16)
  call void @llvm.lifetime.end.p0(i64 8, ptr nonnull %3)
  ret i64 %14
}